; Function Attrs: nounwind uwtable
define noundef ptr @Bmcg_ManStart(ptr noundef %0, ptr noundef %1) local_unnamed_addr #0 {
Vec_PtrGrow.exit:
  %2 = alloca i32, align 4
  %3 = tail call noalias dereferenceable_or_null(936) ptr @calloc(i64 noundef 1, i64 noundef 936) #17
  call void @llvm.lifetime.start.p0(i64 4, ptr nonnull %2) #18
  store i32 1, ptr %2, align 4, !tbaa !3
  store ptr %1, ptr %3, align 8, !tbaa !7
  %4 = getelementptr inbounds nuw i8, ptr %3, i64 8
  store ptr %0, ptr %4, align 8, !tbaa !16
  %5 = getelementptr i8, ptr %0, i64 24
  %.val = load i32, ptr %5, align 8, !tbaa !17
  %6 = mul nsw i32 %.val, 3
  %7 = tail call ptr @Gia_ManStart(i32 noundef %6) #18
  %8 = getelementptr inbounds nuw i8, ptr %3, i64 16
  store ptr %7, ptr %8, align 8, !tbaa !34
  tail call void @Gia_ManHashStart(ptr noundef %7) #18
  %9 = getelementptr inbounds nuw i8, ptr %3, i64 32
  %10 = getelementptr inbounds nuw i8, ptr %3, i64 40
  %11 = tail call noalias dereferenceable_or_null(8000) ptr @malloc(i64 noundef 8000) #19
  store ptr %11, ptr %10, align 8, !tbaa !35
  store i32 1000, ptr %9, align 8, !tbaa !36
  %12 = getelementptr inbounds nuw i8, ptr %3, i64 48
  %13 = getelementptr i8, ptr %0, i64 64
  %.val27 = load ptr, ptr %13, align 8, !tbaa !37
  %14 = getelementptr i8, ptr %.val27, i64 4
  %.val27.val = load i32, ptr %14, align 4, !tbaa !38
  %.not.i29 = icmp slt i32 %.val27.val, 1
  br i1 %.not.i29, label %Vec_IntGrow.exit.i, label %.Vec_IntGrow.exit10_crit_edge.i

.Vec_IntGrow.exit10_crit_edge.i:                  ; preds = %Vec_PtrGrow.exit
  %15 = mul nuw nsw i32 %.val27.val, 3
  %16 = getelementptr inbounds nuw i8, ptr %3, i64 56
  %17 = zext nneg i32 %15 to i64
  %18 = shl nuw nsw i64 %17, 2
  %19 = tail call noalias ptr @malloc(i64 noundef %18) #19
  store ptr %19, ptr %16, align 8, !tbaa !39
  br label %Vec_IntPush.exit

Vec_IntGrow.exit.i:                               ; preds = %Vec_PtrGrow.exit
  %20 = getelementptr inbounds nuw i8, ptr %3, i64 56
  %21 = tail call noalias dereferenceable_or_null(64) ptr @malloc(i64 noundef 64) #19
  store ptr %21, ptr %20, align 8, !tbaa !39
  br label %Vec_IntPush.exit

Vec_IntPush.exit:                                 ; preds = %.Vec_IntGrow.exit10_crit_edge.i, %Vec_IntGrow.exit.i
  %storemerge = phi i32 [ %15, %.Vec_IntGrow.exit10_crit_edge.i ], [ 16, %Vec_IntGrow.exit.i ]
  %22 = phi ptr [ %19, %.Vec_IntGrow.exit10_crit_edge.i ], [ %21, %Vec_IntGrow.exit.i ]
  store i32 %storemerge, ptr %12, align 8, !tbaa !40
  %23 = getelementptr inbounds nuw i8, ptr %3, i64 52
  store i32 1, ptr %23, align 4, !tbaa !38
  store i32 0, ptr %22, align 4, !tbaa !3
  %24 = getelementptr inbounds nuw i8, ptr %3, i64 64
  %25 = getelementptr i8, ptr %.val27, i64 4
  %.val28.val = load i32, ptr %25, align 4, !tbaa !38
  %26 = mul nsw i32 %.val28.val, 3
  %27 = load i32, ptr %24, align 8, !tbaa !40
  %.not.i31 = icmp slt i32 %27, %26
  br i1 %.not.i31, label %28, label %Vec_IntGrow.exit33

28:                                               ; preds = %Vec_IntPush.exit
  %29 = getelementptr inbounds nuw i8, ptr %3, i64 72
  %30 = load ptr, ptr %29, align 8, !tbaa !39
  %.not9.i32 = icmp eq ptr %30, null
  %31 = sext i32 %26 to i64
  %32 = shl nsw i64 %31, 2
  br i1 %.not9.i32, label %35, label %33

33:                                               ; preds = %28
  %34 = tail call ptr @realloc(ptr noundef nonnull %30, i64 noundef %32) #20
  br label %37

35:                                               ; preds = %28
  %36 = tail call noalias ptr @malloc(i64 noundef %32) #19
  br label %37

37:                                               ; preds = %35, %33
  %38 = phi ptr [ %34, %33 ], [ %36, %35 ]
  store ptr %38, ptr %29, align 8, !tbaa !39
  store i32 %26, ptr %24, align 8, !tbaa !40
  br label %Vec_IntGrow.exit33

Vec_IntGrow.exit33:                               ; preds = %Vec_IntPush.exit, %37
  %39 = load ptr, ptr %3, align 8, !tbaa !7
  %40 = getelementptr inbounds nuw i8, ptr %39, i64 24
  %41 = load i32, ptr %40, align 8, !tbaa !41
  %42 = icmp sgt i32 %41, 0
  br i1 %42, label %.lr.ph, label %._crit_edge

.lr.ph:                                           ; preds = %Vec_IntGrow.exit33
  %43 = getelementptr inbounds nuw i8, ptr %3, i64 80
  %44 = getelementptr inbounds nuw i8, ptr %3, i64 892
  br label %45

45:                                               ; preds = %.lr.ph, %45
  %indvars.iv = phi i64 [ 0, %.lr.ph ], [ %indvars.iv.next, %45 ]
  %46 = call ptr (...) @bmcg_sat_solver_start() #18
  %47 = getelementptr inbounds nuw [100 x ptr], ptr %43, i64 0, i64 %indvars.iv
  store ptr %46, ptr %47, align 8, !tbaa !43
  %48 = call i32 @bmcg_sat_solver_addvar(ptr noundef %46) #18
  %49 = load ptr, ptr %47, align 8, !tbaa !43
  %50 = call i32 @bmcg_sat_solver_addclause(ptr noundef %49, ptr noundef nonnull %2, i32 noundef 1) #18
  %51 = load ptr, ptr %47, align 8, !tbaa !43
  call void @bmcg_sat_solver_set_stop(ptr noundef %51, ptr noundef nonnull %44) #18
  %indvars.iv.next = add nuw nsw i64 %indvars.iv, 1
  %52 = load ptr, ptr %3, align 8, !tbaa !7
  %53 = getelementptr inbounds nuw i8, ptr %52, i64 24
  %54 = load i32, ptr %53, align 8, !tbaa !41
  %55 = sext i32 %54 to i64
  %56 = icmp slt i64 %indvars.iv.next, %55
  br i1 %56, label %45, label %._crit_edge, !llvm.loop !44

._crit_edge:                                      ; preds = %45, %Vec_IntGrow.exit33
  %57 = getelementptr inbounds nuw i8, ptr %3, i64 880
  store i32 1, ptr %57, align 8, !tbaa !46
  call void @llvm.lifetime.end.p0(i64 4, ptr nonnull %2) #18
  ret ptr %3
}